; ModuleID = 'source-C-CXX/35/1426.cpp'
source_filename = "source-C-CXX/35/1426.cpp"
target datalayout = "e-m:e-p270:32:32-p271:32:32-p272:64:64-i64:64-f80:128-n8:16:32:64-S128"
target triple = "x86_64-pc-linux-gnu"

%"class.std::ios_base::Init" = type { i8 }
%"class.std::basic_istream" = type { i32 (...)**, i64, %"class.std::basic_ios" }
%"class.std::basic_ios" = type { %"class.std::ios_base", %"class.std::basic_ostream"*, i8, i8, %"class.std::basic_streambuf"*, %"class.std::ctype"*, %"class.std::num_put"*, %"class.std::num_get"* }
%"class.std::ios_base" = type { i32 (...)**, i64, i64, i32, i32, i32, %"struct.std::ios_base::_Callback_list"*, %"struct.std::ios_base::_Words", [8 x %"struct.std::ios_base::_Words"], i32, %"struct.std::ios_base::_Words"*, %"class.std::locale" }
%"struct.std::ios_base::_Callback_list" = type { %"struct.std::ios_base::_Callback_list"*, void (i32, %"class.std::ios_base"*, i32)*, i32, i32 }
%"struct.std::ios_base::_Words" = type { i8*, i64 }
%"class.std::locale" = type { %"class.std::locale::_Impl"* }
%"class.std::locale::_Impl" = type { i32, %"class.std::locale::facet"**, i64, %"class.std::locale::facet"**, i8** }
%"class.std::locale::facet" = type <{ i32 (...)**, i32, [4 x i8] }>
%"class.std::basic_ostream" = type { i32 (...)**, %"class.std::basic_ios" }
%"class.std::basic_streambuf" = type { i32 (...)**, i8*, i8*, i8*, i8*, i8*, i8*, %"class.std::locale" }
%"class.std::ctype" = type <{ %"class.std::locale::facet.base", [4 x i8], %struct.__locale_struct*, i8, [7 x i8], i32*, i32*, i16*, i8, [256 x i8], [256 x i8], i8, [6 x i8] }>
%"class.std::locale::facet.base" = type <{ i32 (...)**, i32 }>
%struct.__locale_struct = type { [13 x %struct.__locale_data*], i16*, i32*, i32*, [13 x i8*] }
%struct.__locale_data = type opaque
%"class.std::num_put" = type { %"class.std::locale::facet.base", [4 x i8] }
%"class.std::num_get" = type { %"class.std::locale::facet.base", [4 x i8] }

@_ZStL8__ioinit = internal global %"class.std::ios_base::Init" zeroinitializer, align 1
@__dso_handle = external hidden global i8
@_ZSt3cin = external global %"class.std::basic_istream", align 8
@_ZSt4cout = external global %"class.std::basic_ostream", align 8
@.str = private unnamed_addr constant [3 x i8] c"NO\00", align 1
@.str.1 = private unnamed_addr constant [4 x i8] c"YES\00", align 1
@llvm.global_ctors = appending global [1 x { i32, void ()*, i8* }] [{ i32, void ()*, i8* } { i32 65535, void ()* @_GLOBAL__sub_I_1426.cpp, i8* null }]

declare void @_ZNSt8ios_base4InitC1Ev(%"class.std::ios_base::Init"* nonnull align 1 dereferenceable(1)) unnamed_addr #0

; Function Attrs: nounwind
declare void @_ZNSt8ios_base4InitD1Ev(%"class.std::ios_base::Init"* nonnull align 1 dereferenceable(1)) unnamed_addr #1

; Function Attrs: nofree nounwind
declare i32 @__cxa_atexit(void (i8*)*, i8*, i8*) local_unnamed_addr #2

; Function Attrs: mustprogress norecurse sspstrong uwtable
define dso_local i32 @main() local_unnamed_addr #3 {
  %1 = alloca [1000 x i8], align 16
  %2 = alloca [1000 x i8], align 16
  %3 = alloca [130 x i32], align 16
  %4 = getelementptr inbounds [1000 x i8], [1000 x i8]* %1, i64 0, i64 0
  call void @llvm.lifetime.start.p0i8(i64 1000, i8* nonnull %4) #8
  %5 = getelementptr inbounds [1000 x i8], [1000 x i8]* %2, i64 0, i64 0
  call void @llvm.lifetime.start.p0i8(i64 1000, i8* nonnull %5) #8
  %6 = bitcast [130 x i32]* %3 to i8*
  call void @llvm.lifetime.start.p0i8(i64 520, i8* nonnull %6) #8
  call void @llvm.memset.p0i8.i64(i8* noundef nonnull align 16 dereferenceable(520) %6, i8 0, i64 520, i1 false)
  call void @_ZSt17__istream_extractRSiPcl(%"class.std::basic_istream"* nonnull align 8 dereferenceable(16) @_ZSt3cin, i8* nonnull %4, i64 1000)
  call void @_ZSt17__istream_extractRSiPcl(%"class.std::basic_istream"* nonnull align 8 dereferenceable(16) @_ZSt3cin, i8* nonnull %5, i64 1000)
  %7 = call i64 @strlen(i8* noundef nonnull %4) #9
  %8 = call i64 @strlen(i8* noundef nonnull %5) #9
  %9 = icmp eq i64 %7, %8
  br i1 %9, label %10, label %17

10:                                               ; preds = %0
  %11 = icmp eq i64 %7, 0
  br i1 %11, label %66, label %12

12:                                               ; preds = %10
  %13 = and i64 %7, 1
  %14 = icmp eq i64 %7, 1
  br i1 %14, label %50, label %15

15:                                               ; preds = %12
  %16 = and i64 %7, -2
  br label %19

17:                                               ; preds = %0
  %18 = call nonnull align 8 dereferenceable(8) %"class.std::basic_ostream"* @_ZSt16__ostream_insertIcSt11char_traitsIcEERSt13basic_ostreamIT_T0_ES6_PKS3_l(%"class.std::basic_ostream"* nonnull align 8 dereferenceable(8) @_ZSt4cout, i8* nonnull getelementptr inbounds ([3 x i8], [3 x i8]* @.str, i64 0, i64 0), i64 2)
  br label %81

19:                                               ; preds = %19, %15
  %20 = phi i64 [ 0, %15 ], [ %47, %19 ]
  %21 = phi i64 [ %16, %15 ], [ %48, %19 ]
  %22 = getelementptr inbounds [1000 x i8], [1000 x i8]* %2, i64 0, i64 %20
  %23 = load i8, i8* %22, align 2, !tbaa !5
  %24 = sext i8 %23 to i64
  %25 = getelementptr inbounds [130 x i32], [130 x i32]* %3, i64 0, i64 %24
  %26 = load i32, i32* %25, align 4, !tbaa !8
  %27 = add nsw i32 %26, -1
  store i32 %27, i32* %25, align 4, !tbaa !8
  %28 = getelementptr inbounds [1000 x i8], [1000 x i8]* %1, i64 0, i64 %20
  %29 = load i8, i8* %28, align 2, !tbaa !5
  %30 = sext i8 %29 to i64
  %31 = getelementptr inbounds [130 x i32], [130 x i32]* %3, i64 0, i64 %30
  %32 = load i32, i32* %31, align 4, !tbaa !8
  %33 = add nsw i32 %32, 1
  store i32 %33, i32* %31, align 4, !tbaa !8
  %34 = or i64 %20, 1
  %35 = getelementptr inbounds [1000 x i8], [1000 x i8]* %2, i64 0, i64 %34
  %36 = load i8, i8* %35, align 1, !tbaa !5
  %37 = sext i8 %36 to i64
  %38 = getelementptr inbounds [130 x i32], [130 x i32]* %3, i64 0, i64 %37
  %39 = load i32, i32* %38, align 4, !tbaa !8
  %40 = add nsw i32 %39, -1
  store i32 %40, i32* %38, align 4, !tbaa !8
  %41 = getelementptr inbounds [1000 x i8], [1000 x i8]* %1, i64 0, i64 %34
  %42 = load i8, i8* %41, align 1, !tbaa !5
  %43 = sext i8 %42 to i64
  %44 = getelementptr inbounds [130 x i32], [130 x i32]* %3, i64 0, i64 %43
  %45 = load i32, i32* %44, align 4, !tbaa !8
  %46 = add nsw i32 %45, 1
  store i32 %46, i32* %44, align 4, !tbaa !8
  %47 = add nuw nsw i64 %20, 2
  %48 = add i64 %21, -2
  %49 = icmp eq i64 %48, 0
  br i1 %49, label %50, label %19, !llvm.loop !10

50:                                               ; preds = %19, %12
  %51 = phi i64 [ 0, %12 ], [ %47, %19 ]
  %52 = icmp eq i64 %13, 0
  br i1 %52, label %66, label %53

53:                                               ; preds = %50
  %54 = getelementptr inbounds [1000 x i8], [1000 x i8]* %2, i64 0, i64 %51
  %55 = load i8, i8* %54, align 1, !tbaa !5
  %56 = sext i8 %55 to i64
  %57 = getelementptr inbounds [130 x i32], [130 x i32]* %3, i64 0, i64 %56
  %58 = load i32, i32* %57, align 4, !tbaa !8
  %59 = add nsw i32 %58, -1
  store i32 %59, i32* %57, align 4, !tbaa !8
  %60 = getelementptr inbounds [1000 x i8], [1000 x i8]* %1, i64 0, i64 %51
  %61 = load i8, i8* %60, align 1, !tbaa !5
  %62 = sext i8 %61 to i64
  %63 = getelementptr inbounds [130 x i32], [130 x i32]* %3, i64 0, i64 %62
  %64 = load i32, i32* %63, align 4, !tbaa !8
  %65 = add nsw i32 %64, 1
  store i32 %65, i32* %63, align 4, !tbaa !8
  br label %66

66:                                               ; preds = %53, %50, %10
  br label %72

67:                                               ; preds = %72
  %68 = add nuw nsw i64 %73, 1
  %69 = getelementptr inbounds [130 x i32], [130 x i32]* %3, i64 0, i64 %68
  %70 = load i32, i32* %69, align 4, !tbaa !8
  %71 = icmp eq i32 %70, 0
  br i1 %71, label %82, label %77

72:                                               ; preds = %97, %66
  %73 = phi i64 [ 0, %66 ], [ %98, %97 ]
  %74 = getelementptr inbounds [130 x i32], [130 x i32]* %3, i64 0, i64 %73
  %75 = load i32, i32* %74, align 4, !tbaa !8
  %76 = icmp eq i32 %75, 0
  br i1 %76, label %67, label %77

77:                                               ; preds = %92, %87, %82, %67, %72
  %78 = call nonnull align 8 dereferenceable(8) %"class.std::basic_ostream"* @_ZSt16__ostream_insertIcSt11char_traitsIcEERSt13basic_ostreamIT_T0_ES6_PKS3_l(%"class.std::basic_ostream"* nonnull align 8 dereferenceable(8) @_ZSt4cout, i8* nonnull getelementptr inbounds ([3 x i8], [3 x i8]* @.str, i64 0, i64 0), i64 2)
  br label %81

79:                                               ; preds = %97
  %80 = call nonnull align 8 dereferenceable(8) %"class.std::basic_ostream"* @_ZSt16__ostream_insertIcSt11char_traitsIcEERSt13basic_ostreamIT_T0_ES6_PKS3_l(%"class.std::basic_ostream"* nonnull align 8 dereferenceable(8) @_ZSt4cout, i8* nonnull getelementptr inbounds ([4 x i8], [4 x i8]* @.str.1, i64 0, i64 0), i64 3)
  br label %81

81:                                               ; preds = %77, %79, %17
  call void @llvm.lifetime.end.p0i8(i64 520, i8* nonnull %6) #8
  call void @llvm.lifetime.end.p0i8(i64 1000, i8* nonnull %5) #8
  call void @llvm.lifetime.end.p0i8(i64 1000, i8* nonnull %4) #8
  ret i32 0

82:                                               ; preds = %67
  %83 = add nuw nsw i64 %73, 2
  %84 = getelementptr inbounds [130 x i32], [130 x i32]* %3, i64 0, i64 %83
  %85 = load i32, i32* %84, align 4, !tbaa !8
  %86 = icmp eq i32 %85, 0
  br i1 %86, label %87, label %77

87:                                               ; preds = %82
  %88 = add nuw nsw i64 %73, 3
  %89 = getelementptr inbounds [130 x i32], [130 x i32]* %3, i64 0, i64 %88
  %90 = load i32, i32* %89, align 4, !tbaa !8
  %91 = icmp eq i32 %90, 0
  br i1 %91, label %92, label %77

92:                                               ; preds = %87
  %93 = add nuw nsw i64 %73, 4
  %94 = getelementptr inbounds [130 x i32], [130 x i32]* %3, i64 0, i64 %93
  %95 = load i32, i32* %94, align 4, !tbaa !8
  %96 = icmp eq i32 %95, 0
  br i1 %96, label %97, label %77

97:                                               ; preds = %92
  %98 = add nuw nsw i64 %73, 5
  %99 = icmp eq i64 %98, 130
  br i1 %99, label %79, label %72, !llvm.loop !12
}

; Function Attrs: argmemonly mustprogress nofree nosync nounwind willreturn
declare void @llvm.lifetime.start.p0i8(i64 immarg, i8* nocapture) #4

; Function Attrs: argmemonly mustprogress nofree nounwind willreturn writeonly
declare void @llvm.memset.p0i8.i64(i8* nocapture writeonly, i8, i64, i1 immarg) #5

; Function Attrs: argmemonly mustprogress nofree nounwind readonly willreturn
declare i64 @strlen(i8* nocapture) local_unnamed_addr #6

; Function Attrs: argmemonly mustprogress nofree nosync nounwind willreturn
declare void @llvm.lifetime.end.p0i8(i64 immarg, i8* nocapture) #4

declare void @_ZSt17__istream_extractRSiPcl(%"class.std::basic_istream"* nonnull align 8 dereferenceable(16), i8*, i64) local_unnamed_addr #0

declare nonnull align 8 dereferenceable(8) %"class.std::basic_ostream"* @_ZSt16__ostream_insertIcSt11char_traitsIcEERSt13basic_ostreamIT_T0_ES6_PKS3_l(%"class.std::basic_ostream"* nonnull align 8 dereferenceable(8), i8*, i64) local_unnamed_addr #0

; Function Attrs: sspstrong uwtable
define internal void @_GLOBAL__sub_I_1426.cpp() #7 section ".text.startup" {
  tail call void @_ZNSt8ios_base4InitC1Ev(%"class.std::ios_base::Init"* nonnull align 1 dereferenceable(1) @_ZStL8__ioinit)
  %1 = tail call i32 @__cxa_atexit(void (i8*)* bitcast (void (%"class.std::ios_base::Init"*)* @_ZNSt8ios_base4InitD1Ev to void (i8*)*), i8* getelementptr inbounds (%"class.std::ios_base::Init", %"class.std::ios_base::Init"* @_ZStL8__ioinit, i64 0, i32 0), i8* nonnull @__dso_handle) #8
  ret void
}


!llvm.module.flags = !{!0, !1, !2, !3}
!llvm.ident = !{!4}

!0 = !{i32 1, !"wchar_size", i32 4}
!1 = !{i32 7, !"PIC Level", i32 2}
!2 = !{i32 7, !"PIE Level", i32 2}
!3 = !{i32 7, !"uwtable", i32 1}
!4 = !{!"clang version 13.0.0"}
!5 = !{!6, !6, i64 0}
!6 = !{!"omnipotent char", !7, i64 0}
!7 = !{!"Simple C++ TBAA"}
!8 = !{!9, !9, i64 0}
!9 = !{!"int", !6, i64 0}
!10 = distinct !{!10, !11}
!11 = !{!"llvm.loop.mustprogress"}
!12 = distinct !{!12, !11}
